
.pio\build\swervolf_nexys\firmware.elf:     file format elf32-littleriscv


Disassembly of section .text.init:

00000000 <_start>:
   0:	b0201073          	csrw	minstret,zero
   4:	b8201073          	csrw	minstreth,zero
   8:	4081                	li	ra,0
   a:	4101                	li	sp,0
   c:	4181                	li	gp,0
   e:	4201                	li	tp,0
  10:	4281                	li	t0,0
  12:	4301                	li	t1,0
  14:	4381                	li	t2,0
  16:	4401                	li	s0,0
  18:	4481                	li	s1,0
  1a:	4501                	li	a0,0
  1c:	4581                	li	a1,0
  1e:	4601                	li	a2,0
  20:	4681                	li	a3,0
  22:	4701                	li	a4,0
  24:	4781                	li	a5,0
  26:	4801                	li	a6,0
  28:	4881                	li	a7,0
  2a:	4901                	li	s2,0
  2c:	4981                	li	s3,0
  2e:	4a01                	li	s4,0
  30:	4a81                	li	s5,0
  32:	4b01                	li	s6,0
  34:	4b81                	li	s7,0
  36:	4c01                	li	s8,0
  38:	4c81                	li	s9,0
  3a:	4d01                	li	s10,0
  3c:	4d81                	li	s11,0
  3e:	4e01                	li	t3,0
  40:	4e81                	li	t4,0
  42:	4f01                	li	t5,0
  44:	4f81                	li	t6,0
  46:	55555337          	lui	t1,0x55555
  4a:	55530313          	addi	t1,t1,1365 # 55555555 <_sw_int_mem_ctrl+0x51555555>
  4e:	7c031073          	csrw	0x7c0,t1
  52:	00003197          	auipc	gp,0x3
  56:	8ee18193          	addi	gp,gp,-1810 # 2940 <__global_pointer$>
  5a:	00003117          	auipc	sp,0x3
  5e:	0e610113          	addi	sp,sp,230 # 3140 <_sp>
  62:	00002517          	auipc	a0,0x2
  66:	0de50513          	addi	a0,a0,222 # 2140 <__bss_start>
  6a:	00002597          	auipc	a1,0x2
  6e:	0d658593          	addi	a1,a1,214 # 2140 <__bss_start>
  72:	00b57763          	bgeu	a0,a1,80 <_start+0x80>
  76:	00052023          	sw	zero,0(a0)
  7a:	0511                	addi	a0,a0,4
  7c:	feb56de3          	bltu	a0,a1,76 <_start+0x76>
  80:	2099                	jal	c6 <__libc_init_array>
  82:	4501                	li	a0,0
  84:	4581                	li	a1,0
  86:	2029                	jal	90 <main>
  88:	a001                	j	88 <_start+0x88>
  8a:	0000                	unimp
  8c:	0000                	unimp
	...

Disassembly of section .text:

00000090 <main>:
  90:	00010e37          	lui	t3,0x10
  94:	fffe0e13          	addi	t3,t3,-1 # ffff <_sp+0xcebf>
  98:	80001537          	lui	a0,0x80001
  9c:	40850513          	addi	a0,a0,1032 # 80001408 <OVERLAY_END_OF_OVERLAYS+0xa0001408>
  a0:	01c52023          	sw	t3,0(a0)
  a4:	00100337          	lui	t1,0x100
  a8:	4281                	li	t0,0

000000aa <bl1>:
  aa:	80001537          	lui	a0,0x80001
  ae:	40450513          	addi	a0,a0,1028 # 80001404 <OVERLAY_END_OF_OVERLAYS+0xa0001404>
  b2:	00552023          	sw	t0,0(a0)
  b6:	0012c293          	xori	t0,t0,1
  ba:	000073b3          	and	t2,zero,zero

000000be <time1>:
  be:	0385                	addi	t2,t2,1
  c0:	fe731fe3          	bne	t1,t2,be <time1>
  c4:	b7dd                	j	aa <bl1>

000000c6 <__libc_init_array>:
  c6:	1141                	addi	sp,sp,-16
  c8:	c422                	sw	s0,8(sp)
  ca:	c04a                	sw	s2,0(sp)
  cc:	00000417          	auipc	s0,0x0
  d0:	f3440413          	addi	s0,s0,-204 # 0 <__comrv_align_size>
  d4:	00000917          	auipc	s2,0x0
  d8:	f2c90913          	addi	s2,s2,-212 # 0 <__comrv_align_size>
  dc:	40890933          	sub	s2,s2,s0
  e0:	c606                	sw	ra,12(sp)
  e2:	c226                	sw	s1,4(sp)
  e4:	40295913          	srai	s2,s2,0x2
  e8:	00090963          	beqz	s2,fa <__libc_init_array+0x34>
  ec:	4481                	li	s1,0
  ee:	401c                	lw	a5,0(s0)
  f0:	0485                	addi	s1,s1,1
  f2:	0411                	addi	s0,s0,4
  f4:	9782                	jalr	a5
  f6:	fe991ce3          	bne	s2,s1,ee <__libc_init_array+0x28>
  fa:	00000417          	auipc	s0,0x0
  fe:	f0640413          	addi	s0,s0,-250 # 0 <__comrv_align_size>
 102:	00000917          	auipc	s2,0x0
 106:	efe90913          	addi	s2,s2,-258 # 0 <__comrv_align_size>
 10a:	40890933          	sub	s2,s2,s0
 10e:	40295913          	srai	s2,s2,0x2
 112:	00090963          	beqz	s2,124 <__libc_init_array+0x5e>
 116:	4481                	li	s1,0
 118:	401c                	lw	a5,0(s0)
 11a:	0485                	addi	s1,s1,1
 11c:	0411                	addi	s0,s0,4
 11e:	9782                	jalr	a5
 120:	fe991ce3          	bne	s2,s1,118 <__libc_init_array+0x52>
 124:	40b2                	lw	ra,12(sp)
 126:	4422                	lw	s0,8(sp)
 128:	4492                	lw	s1,4(sp)
 12a:	4902                	lw	s2,0(sp)
 12c:	0141                	addi	sp,sp,16
 12e:	8082                	ret
